target datalayout = "e-m:e-p270:32:32-p271:32:32-p272:64:64-i64:64-i128:128-f80:128-n8:16:32:64-S128"
target triple = "x86_64-unknown-linux-gnu"

%class.anon.122 = type { i8 }

@stderr = external global ptr, align 8
@.str.63 = private unnamed_addr constant [2 x i8] c"\0A\00", align 1

; Function Attrs: mustprogress nounwind uwtable
define internal void @"_ZZN4node12NodePlatform20GetStackTracePrinterEvENK3$_0clEv"(ptr noundef nonnull align 1 dereferenceable(1) %this) #4 align 2 {
entry:
  %this.addr = alloca ptr, align 8
  store ptr %this, ptr %this.addr, align 8
  %0 = load ptr, ptr @stderr, align 8
  %call = call i32 (ptr, ptr, ...) @fprintf(ptr noundef %0, ptr noundef @.str.63)
  %1 = load ptr, ptr @stderr, align 8
  call void @_ZN4node19DumpNativeBacktraceEP8_IO_FILE(ptr noundef %1)
  %2 = load ptr, ptr @stderr, align 8
  %call2 = call i32 @fflush(ptr noundef %2)
  ret void
}

; Function Attrs: mustprogress nounwind uwtable
define internal void @"_ZZN4node12NodePlatform20GetStackTracePrinterEvEN3$_08__invokeEv"() #4 align 2 {
entry:
  %unused.capture = alloca %class.anon.122, align 1
  call void @"_ZZN4node12NodePlatform20GetStackTracePrinterEvENK3$_0clEv"(ptr noundef nonnull align 1 dereferenceable(1) %unused.capture)
  ret void
}