; Function Attrs: mustprogress nounwind uwtable
define internal void @"_ZZN4node12NodePlatform20GetStackTracePrinterEvEN3$_08__invokeEv"() #3 align 2 {
entry:
  %0 = load ptr, ptr @stderr, align 8
  %fputc.i = tail call i32 @fputc(i32 10, ptr %0)
  %1 = load ptr, ptr @stderr, align 8
  tail call void @_ZN4node19DumpNativeBacktraceEP8_IO_FILE(ptr noundef %1) #23
  %2 = load ptr, ptr @stderr, align 8
  %call2.i = tail call i32 @fflush(ptr noundef %2)
  ret void
}